ccopy_reg
_reconstructor
p0
(csklearn.svm.classes
SVC
p1
c__builtin__
object
p2
Ntp3
Rp4
(dp5
S'kernel'
p6
S'rbf'
p7
sS'C'
p8
I1000
sS'verbose'
p9
I00
sS'probability'
p10
I00
sS'degree'
p11
I3
sS'epsilon'
p12
F0.0
sS'shrinking'
p13
I01
sS'max_iter'
p14
I-1
sS'sparse'
p15
S'auto'
p16
sS'impl'
p17
S'c_svc'
p18
sS'tol'
p19
F0.001
sS'cache_size'
p20
I200
sS'coef0'
p21
F0.0
sS'nu'
p22
F0.0
sS'gamma'
p23
F0.001
sS'class_weight'
p24
Nsb.